target datalayout = "e-m:e-p270:32:32-p271:32:32-p272:64:64-i64:64-i128:128-f80:128-n8:16:32:64-S128"
target triple = "x86_64-pc-linux-gnu"

%struct.ParseContext_ = type { %struct.TokenData, i32, %union.SourceSpan, %union.SourceSpan, ptr, %struct.Lexer }
%struct.TokenData = type { ptr, i64, %union.anon.86 }
%union.anon.86 = type { %struct.anon.89 }
%struct.anon.89 = type { %struct.Int128_, i8 }
%struct.Int128_ = type { i64, i64 }
%union.SourceSpan = type { i64 }
%struct.Lexer = type { ptr, ptr, ptr, ptr, i32, i32, ptr, ptr, ptr, %struct.TokenData, %union.SourceSpan, i32, i32 }
%struct.Expr_ = type { ptr, %union.SourceSpan, i16, %union.anon.30 }
%union.anon.30 = type { %struct.ExprAnySwitch }
%struct.ExprAnySwitch = type { i8, %union.anon.32 }
%union.anon.32 = type { %struct.anon.33 }
%struct.anon.33 = type { ptr, %union.SourceSpan, ptr }
%struct.anon.0 = type { i16, i8, i8, i32 }
%struct.VHeader_ = type { i32, i32, [0 x i8] }
%struct.ExprCtAndOr = type { i8, ptr }

@poisoned_expr = external global ptr, align 8
@.str.22 = private unnamed_addr constant [15 x i8] c"Expected '%s'.\00", align 1

; Function Attrs: nounwind uwtable
define internal ptr @vec_new_(i64 noundef %0, i64 noundef %1) #0 {
  %3 = alloca i64, align 8
  %4 = alloca i64, align 8
  %5 = alloca ptr, align 8
  store i64 %0, ptr %3, align 8
  store i64 %1, ptr %4, align 8
  %6 = load i64, ptr %3, align 8
  %7 = load i64, ptr %4, align 8
  %8 = mul i64 %6, %7
  %9 = add i64 %8, 8
  %10 = call ptr @calloc_arena(i64 noundef %9)
  store ptr %10, ptr %5, align 8
  %11 = load i64, ptr %4, align 8
  %12 = trunc i64 %11 to i32
  %13 = load ptr, ptr %5, align 8
  %14 = getelementptr inbounds %struct.VHeader_, ptr %13, i32 0, i32 1
  store i32 %12, ptr %14, align 4
  %15 = load ptr, ptr %5, align 8
  ret ptr %15
}

; Function Attrs: nounwind uwtable
define internal i64 @extend_span_with_token(i64 %0, i64 %1) #0 {
  %3 = alloca %union.SourceSpan, align 8
  %4 = alloca %union.SourceSpan, align 8
  %5 = alloca %union.SourceSpan, align 8
  %6 = getelementptr inbounds %union.SourceSpan, ptr %4, i32 0, i32 0
  store i64 %0, ptr %6, align 8
  %7 = getelementptr inbounds %union.SourceSpan, ptr %5, i32 0, i32 0
  store i64 %1, ptr %7, align 8
  %8 = getelementptr inbounds %struct.anon.0, ptr %4, i32 0, i32 3
  %9 = load i32, ptr %8, align 4
  %10 = getelementptr inbounds %struct.anon.0, ptr %5, i32 0, i32 3
  %11 = load i32, ptr %10, align 4
  %12 = icmp ne i32 %9, %11
  br i1 %12, label %13, label %14

13:                                               ; preds = %2
  call void @llvm.memcpy.p0.p0.i64(ptr align 8 %3, ptr align 8 %4, i64 8, i1 false)
  br label %28

14:                                               ; preds = %2
  %15 = getelementptr inbounds %struct.anon.0, ptr %5, i32 0, i32 2
  %16 = load i8, ptr %15, align 1
  %17 = zext i8 %16 to i32
  %18 = getelementptr inbounds %struct.anon.0, ptr %5, i32 0, i32 1
  %19 = load i8, ptr %18, align 2
  %20 = zext i8 %19 to i32
  %21 = add nsw i32 %17, %20
  %22 = getelementptr inbounds %struct.anon.0, ptr %4, i32 0, i32 2
  %23 = load i8, ptr %22, align 1
  %24 = zext i8 %23 to i32
  %25 = sub nsw i32 %21, %24
  %26 = trunc i32 %25 to i8
  %27 = getelementptr inbounds %struct.anon.0, ptr %4, i32 0, i32 1
  store i8 %26, ptr %27, align 2
  call void @llvm.memcpy.p0.p0.i64(ptr align 8 %3, ptr align 8 %4, i64 8, i1 false)
  br label %28

28:                                               ; preds = %14, %13
  %29 = getelementptr inbounds %union.SourceSpan, ptr %3, i32 0, i32 0
  %30 = load i64, ptr %29, align 8
  ret i64 %30
}

; Function Attrs: nounwind uwtable
define internal ptr @expand_(ptr noundef %0, i64 noundef %1) #0 {
  %3 = alloca ptr, align 8
  %4 = alloca i64, align 8
  %5 = alloca ptr, align 8
  %6 = alloca ptr, align 8
  %7 = alloca i64, align 8
  store ptr %0, ptr %3, align 8
  store i64 %1, ptr %4, align 8
  %8 = load ptr, ptr %3, align 8
  %9 = icmp ne ptr %8, null
  br i1 %9, label %13, label %10

10:                                               ; preds = %2
  %11 = load i64, ptr %4, align 8
  %12 = call ptr @vec_new_(i64 noundef %11, i64 noundef 8)
  store ptr %12, ptr %5, align 8
  br label %16

13:                                               ; preds = %2
  %14 = load ptr, ptr %3, align 8
  %15 = getelementptr inbounds %struct.VHeader_, ptr %14, i64 -1
  store ptr %15, ptr %5, align 8
  br label %16

16:                                               ; preds = %13, %10
  %17 = load ptr, ptr %5, align 8
  %18 = getelementptr inbounds %struct.VHeader_, ptr %17, i32 0, i32 0
  %19 = load i32, ptr %18, align 4
  %20 = load ptr, ptr %5, align 8
  %21 = getelementptr inbounds %struct.VHeader_, ptr %20, i32 0, i32 1
  %22 = load i32, ptr %21, align 4
  %23 = icmp eq i32 %19, %22
  br i1 %23, label %24, label %49

24:                                               ; preds = %16
  %25 = load i64, ptr %4, align 8
  %26 = load ptr, ptr %5, align 8
  %27 = getelementptr inbounds %struct.VHeader_, ptr %26, i32 0, i32 1
  %28 = load i32, ptr %27, align 4
  %29 = shl i32 %28, 1
  %30 = zext i32 %29 to i64
  %31 = call ptr @vec_new_(i64 noundef %25, i64 noundef %30)
  store ptr %31, ptr %6, align 8
  %32 = load i64, ptr %4, align 8
  %33 = load ptr, ptr %5, align 8
  %34 = getelementptr inbounds %struct.VHeader_, ptr %33, i32 0, i32 1
  %35 = load i32, ptr %34, align 4
  %36 = zext i32 %35 to i64
  %37 = mul i64 %32, %36
  %38 = add i64 %37, 8
  store i64 %38, ptr %7, align 8
  %39 = load ptr, ptr %6, align 8
  %40 = load ptr, ptr %5, align 8
  %41 = load i64, ptr %7, align 8
  call void @llvm.memcpy.p0.p0.i64(ptr align 4 %39, ptr align 4 %40, i64 %41, i1 false)
  %42 = load ptr, ptr %6, align 8
  store ptr %42, ptr %5, align 8
  %43 = load ptr, ptr %5, align 8
  %44 = getelementptr inbounds %struct.VHeader_, ptr %43, i32 0, i32 1
  %45 = load i32, ptr %44, align 4
  %46 = shl i32 %45, 1
  %47 = load ptr, ptr %6, align 8
  %48 = getelementptr inbounds %struct.VHeader_, ptr %47, i32 0, i32 1
  store i32 %46, ptr %48, align 4
  br label %49

49:                                               ; preds = %24, %16
  %50 = load ptr, ptr %5, align 8
  %51 = getelementptr inbounds %struct.VHeader_, ptr %50, i32 0, i32 0
  %52 = load i32, ptr %51, align 4
  %53 = add i32 %52, 1
  store i32 %53, ptr %51, align 4
  %54 = load ptr, ptr %5, align 8
  %55 = getelementptr inbounds %struct.VHeader_, ptr %54, i64 1
  ret ptr %55
}

; Function Attrs: nounwind uwtable
define dso_local ptr @parse_expr(ptr noundef %0) #0 {
  %2 = alloca ptr, align 8
  store ptr %0, ptr %2, align 8
  %3 = load ptr, ptr %2, align 8
  %4 = call ptr @parse_precedence(ptr noundef %3, i32 noundef 1)
  ret ptr %4
}

; Function Attrs: nounwind uwtable
define internal ptr @parse_ct_and_or(ptr noundef %0, ptr noundef %1) #0 {
  %3 = alloca ptr, align 8
  %4 = alloca i32, align 4
  %5 = alloca i1, align 1
  %6 = alloca ptr, align 8
  %7 = alloca i32, align 4
  %8 = alloca ptr, align 8
  %9 = alloca i32, align 4
  %10 = alloca i1, align 1
  %11 = alloca ptr, align 8
  %12 = alloca i32, align 4
  %13 = alloca i32, align 4
  %14 = alloca ptr, align 8
  %15 = alloca ptr, align 8
  %16 = alloca ptr, align 8
  %17 = alloca ptr, align 8
  %18 = alloca i32, align 4
  %19 = alloca ptr, align 8
  %20 = alloca ptr, align 8
  %21 = alloca ptr, align 8
  %22 = alloca ptr, align 8
  %23 = alloca ptr, align 8
  %24 = alloca ptr, align 8
  %25 = alloca ptr, align 8
  %26 = alloca ptr, align 8
  %27 = alloca %union.SourceSpan, align 8
  store ptr %0, ptr %20, align 8
  store ptr %1, ptr %21, align 8
  %28 = load ptr, ptr %20, align 8
  %29 = getelementptr inbounds %struct.ParseContext_, ptr %28, i32 0, i32 2
  %30 = getelementptr inbounds %union.SourceSpan, ptr %29, i32 0, i32 0
  %31 = load i64, ptr %30, align 8
  %32 = call ptr @expr_new(i32 noundef 15, i64 %31)
  store ptr %32, ptr %22, align 8
  %33 = load ptr, ptr %20, align 8
  store ptr %33, ptr %17, align 8
  store i32 146, ptr %18, align 4
  %34 = load ptr, ptr %17, align 8
  %35 = getelementptr inbounds %struct.ParseContext_, ptr %34, i32 0, i32 1
  %36 = load i32, ptr %35, align 8
  %37 = load i32, ptr %18, align 4
  %38 = icmp eq i32 %36, %37
  %39 = load ptr, ptr %22, align 8
  %40 = getelementptr inbounds %struct.Expr_, ptr %39, i32 0, i32 3
  %41 = getelementptr inbounds %struct.ExprCtAndOr, ptr %40, i32 0, i32 0
  %42 = zext i1 %38 to i8
  store i8 %42, ptr %41, align 8
  %43 = load ptr, ptr %20, align 8
  call void @advance(ptr noundef %43)
  br label %44

44:                                               ; preds = %2
  %45 = load ptr, ptr %20, align 8
  store ptr %45, ptr %6, align 8
  store i32 19, ptr %7, align 4
  %46 = load ptr, ptr %6, align 8
  %47 = load i32, ptr %7, align 4
  store ptr %46, ptr %3, align 8
  store i32 %47, ptr %4, align 4
  %48 = load ptr, ptr %3, align 8
  %49 = getelementptr inbounds %struct.ParseContext_, ptr %48, i32 0, i32 1
  %50 = load i32, ptr %49, align 8
  %51 = load i32, ptr %4, align 4
  %52 = icmp eq i32 %50, %51
  br i1 %52, label %53, label %54

53:                                               ; preds = %44
  store i1 true, ptr %5, align 1
  br label %60

54:                                               ; preds = %44
  %55 = load ptr, ptr %6, align 8
  %56 = getelementptr inbounds %struct.ParseContext_, ptr %55, i32 0, i32 2
  %57 = load i32, ptr %7, align 4
  %58 = call ptr @token_type_to_string(i32 noundef %57) #5
  %59 = load i64, ptr %56, align 8
  call void (i64, ptr, ...) @sema_error_at(i64 %59, ptr noundef @.str.22, ptr noundef %58) #5
  store i1 false, ptr %5, align 1
  br label %60

60:                                               ; preds = %54, %53
  %61 = load i1, ptr %5, align 1
  br i1 %61, label %64, label %62

62:                                               ; preds = %60
  %63 = load ptr, ptr @poisoned_expr, align 8
  store ptr %63, ptr %19, align 8
  br label %154

64:                                               ; preds = %60
  %65 = load ptr, ptr %20, align 8
  call void @advance(ptr noundef %65)
  br label %66

66:                                               ; preds = %64
  store ptr null, ptr %23, align 8
  br label %67

67:                                               ; preds = %109, %66
  %68 = load ptr, ptr %20, align 8
  %69 = call ptr @parse_expr(ptr noundef %68)
  store ptr %69, ptr %24, align 8
  %70 = load ptr, ptr %24, align 8
  store ptr %70, ptr %16, align 8
  %71 = load ptr, ptr %16, align 8
  %72 = icmp eq ptr %71, null
  br i1 %72, label %80, label %73

73:                                               ; preds = %67
  %74 = load ptr, ptr %16, align 8
  %75 = getelementptr inbounds %struct.Expr_, ptr %74, i32 0, i32 2
  %76 = load i16, ptr %75, align 8
  %77 = and i16 %76, 255
  %78 = zext i16 %77 to i32
  %79 = icmp ne i32 %78, 0
  br label %80

80:                                               ; preds = %73, %67
  %81 = phi i1 [ true, %67 ], [ %79, %73 ]
  br i1 %81, label %84, label %82

82:                                               ; preds = %80
  %83 = load ptr, ptr @poisoned_expr, align 8
  store ptr %83, ptr %19, align 8
  br label %154

84:                                               ; preds = %80
  %85 = load ptr, ptr %24, align 8
  store ptr %85, ptr %25, align 8
  br label %86

86:                                               ; preds = %84
  %87 = load ptr, ptr %23, align 8
  %88 = call ptr @expand_(ptr noundef %87, i64 noundef 8)
  store ptr %88, ptr %26, align 8
  %89 = load ptr, ptr %26, align 8
  store ptr %89, ptr %23, align 8
  %90 = load ptr, ptr %25, align 8
  %91 = load ptr, ptr %23, align 8
  %92 = load ptr, ptr %23, align 8
  store ptr %92, ptr %14, align 8
  %93 = load ptr, ptr %14, align 8
  %94 = icmp ne ptr %93, null
  br i1 %94, label %96, label %95

95:                                               ; preds = %86
  store i32 0, ptr %13, align 4
  br label %101

96:                                               ; preds = %86
  %97 = load ptr, ptr %14, align 8
  store ptr %97, ptr %15, align 8
  %98 = load ptr, ptr %15, align 8
  %99 = getelementptr inbounds %struct.VHeader_, ptr %98, i64 -1
  %100 = load i32, ptr %99, align 4
  store i32 %100, ptr %13, align 4
  br label %101

101:                                              ; preds = %96, %95
  %102 = load i32, ptr %13, align 4
  %103 = sub i32 %102, 1
  %104 = zext i32 %103 to i64
  %105 = getelementptr inbounds ptr, ptr %91, i64 %104
  store ptr %90, ptr %105, align 8
  br label %106

106:                                              ; preds = %101
  %107 = load ptr, ptr %20, align 8
  %108 = call zeroext i1 @try_consume(ptr noundef %107, i32 noundef 8)
  br i1 %108, label %109, label %110

109:                                              ; preds = %106
  br label %67

110:                                              ; preds = %106
  br label %111

111:                                              ; preds = %110
  %112 = load ptr, ptr %20, align 8
  store ptr %112, ptr %11, align 8
  store i32 26, ptr %12, align 4
  %113 = load ptr, ptr %11, align 8
  %114 = load i32, ptr %12, align 4
  store ptr %113, ptr %8, align 8
  store i32 %114, ptr %9, align 4
  %115 = load ptr, ptr %8, align 8
  %116 = getelementptr inbounds %struct.ParseContext_, ptr %115, i32 0, i32 1
  %117 = load i32, ptr %116, align 8
  %118 = load i32, ptr %9, align 4
  %119 = icmp eq i32 %117, %118
  br i1 %119, label %120, label %121

120:                                              ; preds = %111
  store i1 true, ptr %10, align 1
  br label %127

121:                                              ; preds = %111
  %122 = load ptr, ptr %11, align 8
  %123 = getelementptr inbounds %struct.ParseContext_, ptr %122, i32 0, i32 2
  %124 = load i32, ptr %12, align 4
  %125 = call ptr @token_type_to_string(i32 noundef %124) #5
  %126 = load i64, ptr %123, align 8
  call void (i64, ptr, ...) @sema_error_at(i64 %126, ptr noundef @.str.22, ptr noundef %125) #5
  store i1 false, ptr %10, align 1
  br label %127

127:                                              ; preds = %121, %120
  %128 = load i1, ptr %10, align 1
  br i1 %128, label %131, label %129

129:                                              ; preds = %127
  %130 = load ptr, ptr @poisoned_expr, align 8
  store ptr %130, ptr %19, align 8
  br label %154

131:                                              ; preds = %127
  %132 = load ptr, ptr %20, align 8
  call void @advance(ptr noundef %132)
  br label %133

133:                                              ; preds = %131
  br label %134

134:                                              ; preds = %133
  %135 = load ptr, ptr %23, align 8
  %136 = load ptr, ptr %22, align 8
  %137 = getelementptr inbounds %struct.Expr_, ptr %136, i32 0, i32 3
  %138 = getelementptr inbounds %struct.ExprCtAndOr, ptr %137, i32 0, i32 1
  store ptr %135, ptr %138, align 8
  br label %139

139:                                              ; preds = %134
  %140 = load ptr, ptr %22, align 8
  %141 = getelementptr inbounds %struct.Expr_, ptr %140, i32 0, i32 1
  %142 = load ptr, ptr %22, align 8
  %143 = getelementptr inbounds %struct.Expr_, ptr %142, i32 0, i32 1
  %144 = load ptr, ptr %20, align 8
  %145 = getelementptr inbounds %struct.ParseContext_, ptr %144, i32 0, i32 3
  %146 = getelementptr inbounds %union.SourceSpan, ptr %143, i32 0, i32 0
  %147 = load i64, ptr %146, align 8
  %148 = getelementptr inbounds %union.SourceSpan, ptr %145, i32 0, i32 0
  %149 = load i64, ptr %148, align 8
  %150 = call i64 @extend_span_with_token(i64 %147, i64 %149)
  %151 = getelementptr inbounds %union.SourceSpan, ptr %27, i32 0, i32 0
  store i64 %150, ptr %151, align 8
  call void @llvm.memcpy.p0.p0.i64(ptr align 8 %141, ptr align 8 %27, i64 8, i1 false)
  br label %152

152:                                              ; preds = %139
  %153 = load ptr, ptr %22, align 8
  store ptr %153, ptr %19, align 8
  br label %154

154:                                              ; preds = %152, %129, %82, %62
  %155 = load ptr, ptr %19, align 8
  ret ptr %155
}