; Function Attrs: nounwind uwtable
define internal ptr @parse_ct_and_or(ptr noundef %0, ptr nocapture readnone %1) #1 {
  %3 = getelementptr inbounds i8, ptr %0, i64 48
  %4 = load i64, ptr %3, align 8
  %5 = tail call ptr @expr_new(i32 noundef 15, i64 %4) #8
  %6 = getelementptr inbounds i8, ptr %0, i64 40
  %7 = load i32, ptr %6, align 8
  %8 = icmp eq i32 %7, 146
  %9 = getelementptr inbounds i8, ptr %5, i64 24
  %10 = zext i1 %8 to i8
  store i8 %10, ptr %9, align 8
  tail call void @advance(ptr noundef %0) #8
  %11 = load i32, ptr %6, align 8
  %12 = icmp eq i32 %11, 19
  br i1 %12, label %.critedge53, label %13

13:                                               ; preds = %2
  %14 = tail call ptr @token_type_to_string(i32 noundef 19) #8
  %15 = load i64, ptr %3, align 8
  tail call void (i64, ptr, ...) @sema_error_at(i64 %15, ptr noundef nonnull @.str.22, ptr noundef %14) #8
  %16 = load ptr, ptr @poisoned_expr, align 8
  br label %78

.critedge53:                                      ; preds = %2
  tail call void @advance(ptr noundef nonnull %0) #8
  br label %17

17:                                               ; preds = %49, %.critedge53
  %.048 = phi ptr [ null, %.critedge53 ], [ %52, %49 ]
  %18 = tail call fastcc ptr @parse_precedence(ptr noundef %0, i32 noundef 1)
  %19 = icmp eq ptr %18, null
  br i1 %19, label %.critedge, label %20

20:                                               ; preds = %17
  %21 = getelementptr inbounds i8, ptr %18, i64 16
  %22 = load i16, ptr %21, align 8
  %23 = and i16 %22, 255
  %.not = icmp eq i16 %23, 0
  br i1 %.not, label %24, label %.critedge

24:                                               ; preds = %20
  %25 = load ptr, ptr @poisoned_expr, align 8
  br label %78

.critedge:                                        ; preds = %17, %20
  %.not.i = icmp eq ptr %.048, null
  br i1 %.not.i, label %26, label %29

26:                                               ; preds = %.critedge
  %27 = tail call ptr @calloc_arena(i64 noundef 72) #8
  %28 = getelementptr inbounds i8, ptr %27, i64 4
  store i32 8, ptr %28, align 4
  br label %31

29:                                               ; preds = %.critedge
  %30 = getelementptr inbounds i8, ptr %.048, i64 -8
  %.phi.trans.insert.i = getelementptr inbounds i8, ptr %.048, i64 -4
  %.pre.i = load i32, ptr %.phi.trans.insert.i, align 4
  br label %31

31:                                               ; preds = %29, %26
  %32 = phi i32 [ %.pre.i, %29 ], [ 8, %26 ]
  %.0.i = phi ptr [ %30, %29 ], [ %27, %26 ]
  %33 = load i32, ptr %.0.i, align 4
  %34 = icmp eq i32 %33, %32
  br i1 %34, label %35, label %49

35:                                               ; preds = %31
  %36 = getelementptr inbounds i8, ptr %.0.i, i64 4
  %37 = shl i32 %32, 1
  %38 = zext i32 %37 to i64
  %39 = shl nuw nsw i64 %38, 3
  %40 = or disjoint i64 %39, 8
  %41 = tail call ptr @calloc_arena(i64 noundef %40) #8
  %42 = getelementptr inbounds i8, ptr %41, i64 4
  store i32 %37, ptr %42, align 4
  %43 = load i32, ptr %36, align 4
  %44 = zext i32 %43 to i64
  %45 = shl nuw nsw i64 %44, 3
  %46 = add nuw nsw i64 %45, 8
  tail call void @llvm.memcpy.p0.p0.i64(ptr noundef nonnull align 4 dereferenceable(1) %41, ptr noundef nonnull align 4 dereferenceable(1) %.0.i, i64 %46, i1 false)
  %47 = load i32, ptr %42, align 4
  %48 = shl i32 %47, 1
  store i32 %48, ptr %42, align 4
  %.pre18.i = load i32, ptr %41, align 4
  br label %49

49:                                               ; preds = %31, %35
  %50 = phi i32 [ %.pre18.i, %35 ], [ %33, %31 ]
  %.1.i = phi ptr [ %41, %35 ], [ %.0.i, %31 ]
  %51 = add i32 %50, 1
  store i32 %51, ptr %.1.i, align 4
  %52 = getelementptr inbounds i8, ptr %.1.i, i64 8
  %53 = zext i32 %50 to i64
  %54 = getelementptr inbounds ptr, ptr %52, i64 %53
  store ptr %18, ptr %54, align 8
  %55 = tail call zeroext i1 @try_consume(ptr noundef %0, i32 noundef 8) #8
  br i1 %55, label %17, label %56

56:                                               ; preds = %49
  %57 = load i32, ptr %6, align 8
  %58 = icmp eq i32 %57, 26
  br i1 %58, label %.critedge55, label %59

59:                                               ; preds = %56
  %60 = tail call ptr @token_type_to_string(i32 noundef 26) #8
  %61 = load i64, ptr %3, align 8
  tail call void (i64, ptr, ...) @sema_error_at(i64 %61, ptr noundef nonnull @.str.22, ptr noundef %60) #8
  %62 = load ptr, ptr @poisoned_expr, align 8
  br label %78

.critedge55:                                      ; preds = %56
  tail call void @advance(ptr noundef nonnull %0) #8
  %63 = getelementptr inbounds i8, ptr %5, i64 32
  store ptr %52, ptr %63, align 8
  %64 = getelementptr inbounds i8, ptr %5, i64 8
  %65 = getelementptr inbounds i8, ptr %0, i64 56
  %66 = load i64, ptr %64, align 8
  %67 = load i64, ptr %65, align 8
  %.not.unshifted.i = xor i64 %67, %66
  %.not.i56 = icmp ult i64 %.not.unshifted.i, 4294967296
  br i1 %.not.i56, label %69, label %68

68:                                               ; preds = %.critedge55
  %.sroa.33.0.extract.shift.i = lshr i64 %66, 16
  br label %extend_span_with_token.exit

69:                                               ; preds = %.critedge55
  %.sroa.4.0.extract.shift.i = lshr i64 %66, 24
  %70 = trunc i64 %67 to i32
  %71 = lshr i32 %70, 24
  %72 = lshr i32 %70, 16
  %73 = trunc i64 %.sroa.4.0.extract.shift.i to i32
  %74 = sub i32 %72, %73
  %75 = add i32 %74, %71
  %76 = zext i32 %75 to i64
  br label %extend_span_with_token.exit

extend_span_with_token.exit:                      ; preds = %68, %69
  %.sroa.311.0.i = phi i64 [ %.sroa.33.0.extract.shift.i, %68 ], [ %76, %69 ]
  %.sroa.311.0.insert.ext.i = shl nuw i64 %.sroa.311.0.i, 16
  %.sroa.311.0.insert.shift.i = and i64 %.sroa.311.0.insert.ext.i, 16711680
  %77 = and i64 %66, -16711681
  %.sroa.010.0.insert.insert.i = or disjoint i64 %.sroa.311.0.insert.shift.i, %77
  store i64 %.sroa.010.0.insert.insert.i, ptr %64, align 8
  br label %78

78:                                               ; preds = %extend_span_with_token.exit, %59, %24, %13
  %.047 = phi ptr [ %5, %extend_span_with_token.exit ], [ %62, %59 ], [ %25, %24 ], [ %16, %13 ]
  ret ptr %.047
}